target datalayout = "e-m:e-p270:32:32-p271:32:32-p272:64:64-i64:64-i128:128-f80:128-n8:16:32:64-S128"
target triple = "x86_64-pc-linux-gnu"

%struct.ossl_param_bld_st = type { i64, i64, ptr }
%struct.OSSL_PARAM_BLD_DEF = type { ptr, i32, i32, i64, i64, ptr, ptr, %union.anon }
%union.anon = type { i64 }

@.str = private unnamed_addr constant [32 x i8] c"../openssl/crypto/param_build.c\00", align 1

; Function Attrs: inlinehint nounwind uwtable
define internal i32 @sk_OSSL_PARAM_BLD_DEF_push(ptr noundef %0, ptr noundef %1) #3 {
  %3 = alloca ptr, align 8
  %4 = alloca ptr, align 8
  store ptr %0, ptr %3, align 8, !tbaa !16
  store ptr %1, ptr %4, align 8, !tbaa !19
  %5 = load ptr, ptr %3, align 8, !tbaa !16
  %6 = load ptr, ptr %4, align 8, !tbaa !19
  %7 = call i32 @OPENSSL_sk_push(ptr noundef %5, ptr noundef %6)
  ret i32 %7
}

; Function Attrs: nounwind uwtable
define internal ptr @param_push(ptr noundef %0, ptr noundef %1, i64 noundef %2, i64 noundef %3, i32 noundef %4, i32 noundef %5) #0 {
  %7 = alloca ptr, align 8
  %8 = alloca ptr, align 8
  %9 = alloca ptr, align 8
  %10 = alloca i64, align 8
  %11 = alloca i64, align 8
  %12 = alloca i32, align 4
  %13 = alloca i32, align 4
  %14 = alloca ptr, align 8
  %15 = alloca i32, align 4
  store ptr %0, ptr %8, align 8, !tbaa !3
  store ptr %1, ptr %9, align 8, !tbaa !17
  store i64 %2, ptr %10, align 8, !tbaa !20
  store i64 %3, ptr %11, align 8, !tbaa !20
  store i32 %4, ptr %12, align 4, !tbaa !12
  store i32 %5, ptr %13, align 4, !tbaa !12
  call void @llvm.lifetime.start.p0(i64 8, ptr %14) #8
  %16 = call noalias ptr @CRYPTO_zalloc(i64 noundef 56, ptr noundef @.str, i32 noundef 55)
  store ptr %16, ptr %14, align 8, !tbaa !19
  %17 = load ptr, ptr %14, align 8, !tbaa !19
  %18 = icmp eq ptr %17, null
  br i1 %18, label %19, label %20

19:                                               ; preds = %6
  store ptr null, ptr %7, align 8
  store i32 1, ptr %15, align 4
  br label %65

20:                                               ; preds = %6
  %21 = load ptr, ptr %9, align 8, !tbaa !17
  %22 = load ptr, ptr %14, align 8, !tbaa !19
  %23 = getelementptr inbounds nuw %struct.OSSL_PARAM_BLD_DEF, ptr %22, i32 0, i32 0
  store ptr %21, ptr %23, align 8, !tbaa !28
  %24 = load i32, ptr %12, align 4, !tbaa !12
  %25 = load ptr, ptr %14, align 8, !tbaa !19
  %26 = getelementptr inbounds nuw %struct.OSSL_PARAM_BLD_DEF, ptr %25, i32 0, i32 1
  store i32 %24, ptr %26, align 8, !tbaa !29
  %27 = load i64, ptr %10, align 8, !tbaa !20
  %28 = load ptr, ptr %14, align 8, !tbaa !19
  %29 = getelementptr inbounds nuw %struct.OSSL_PARAM_BLD_DEF, ptr %28, i32 0, i32 3
  store i64 %27, ptr %29, align 8, !tbaa !30
  %30 = load i64, ptr %11, align 8, !tbaa !20
  %31 = call i64 @ossl_param_bytes_to_blocks(i64 noundef %30)
  %32 = load ptr, ptr %14, align 8, !tbaa !19
  %33 = getelementptr inbounds nuw %struct.OSSL_PARAM_BLD_DEF, ptr %32, i32 0, i32 4
  store i64 %31, ptr %33, align 8, !tbaa !31
  %34 = load i32, ptr %13, align 4, !tbaa !12
  %35 = load ptr, ptr %14, align 8, !tbaa !19
  %36 = getelementptr inbounds nuw %struct.OSSL_PARAM_BLD_DEF, ptr %35, i32 0, i32 2
  store i32 %34, ptr %36, align 4, !tbaa !32
  %37 = icmp ne i32 %34, 0
  br i1 %37, label %38, label %46

38:                                               ; preds = %20
  %39 = load ptr, ptr %14, align 8, !tbaa !19
  %40 = getelementptr inbounds nuw %struct.OSSL_PARAM_BLD_DEF, ptr %39, i32 0, i32 4
  %41 = load i64, ptr %40, align 8, !tbaa !31
  %42 = load ptr, ptr %8, align 8, !tbaa !3
  %43 = getelementptr inbounds nuw %struct.ossl_param_bld_st, ptr %42, i32 0, i32 1
  %44 = load i64, ptr %43, align 8, !tbaa !33
  %45 = add i64 %44, %41
  store i64 %45, ptr %43, align 8, !tbaa !33
  br label %54

46:                                               ; preds = %20
  %47 = load ptr, ptr %14, align 8, !tbaa !19
  %48 = getelementptr inbounds nuw %struct.OSSL_PARAM_BLD_DEF, ptr %47, i32 0, i32 4
  %49 = load i64, ptr %48, align 8, !tbaa !31
  %50 = load ptr, ptr %8, align 8, !tbaa !3
  %51 = getelementptr inbounds nuw %struct.ossl_param_bld_st, ptr %50, i32 0, i32 0
  %52 = load i64, ptr %51, align 8, !tbaa !34
  %53 = add i64 %52, %49
  store i64 %53, ptr %51, align 8, !tbaa !34
  br label %54

54:                                               ; preds = %46, %38
  %55 = load ptr, ptr %8, align 8, !tbaa !3
  %56 = getelementptr inbounds nuw %struct.ossl_param_bld_st, ptr %55, i32 0, i32 2
  %57 = load ptr, ptr %56, align 8, !tbaa !8
  %58 = load ptr, ptr %14, align 8, !tbaa !19
  %59 = call i32 @sk_OSSL_PARAM_BLD_DEF_push(ptr noundef %57, ptr noundef %58)
  %60 = icmp sle i32 %59, 0
  br i1 %60, label %61, label %63

61:                                               ; preds = %54
  %62 = load ptr, ptr %14, align 8, !tbaa !19
  call void @CRYPTO_free(ptr noundef %62, ptr noundef @.str, i32 noundef 68)
  store ptr null, ptr %14, align 8, !tbaa !19
  br label %63

63:                                               ; preds = %61, %54
  %64 = load ptr, ptr %14, align 8, !tbaa !19
  store ptr %64, ptr %7, align 8
  store i32 1, ptr %15, align 4
  br label %65

65:                                               ; preds = %63, %19
  call void @llvm.lifetime.end.p0(i64 8, ptr %14) #8
  %66 = load ptr, ptr %7, align 8
  ret ptr %66
}

; Function Attrs: nounwind uwtable
define i32 @OSSL_PARAM_BLD_push_octet_ptr(ptr noundef %0, ptr noundef %1, ptr noundef %2, i64 noundef %3) #0 {
  %5 = alloca i32, align 4
  %6 = alloca ptr, align 8
  %7 = alloca ptr, align 8
  %8 = alloca ptr, align 8
  %9 = alloca i64, align 8
  %10 = alloca ptr, align 8
  %11 = alloca i32, align 4
  store ptr %0, ptr %6, align 8, !tbaa !3
  store ptr %1, ptr %7, align 8, !tbaa !17
  store ptr %2, ptr %8, align 8, !tbaa !19
  store i64 %3, ptr %9, align 8, !tbaa !20
  call void @llvm.lifetime.start.p0(i64 8, ptr %10) #8
  %12 = load ptr, ptr %6, align 8, !tbaa !3
  %13 = load ptr, ptr %7, align 8, !tbaa !17
  %14 = load i64, ptr %9, align 8, !tbaa !20
  %15 = call ptr @param_push(ptr noundef %12, ptr noundef %13, i64 noundef %14, i64 noundef 8, i32 noundef 7, i32 noundef 0)
  store ptr %15, ptr %10, align 8, !tbaa !19
  %16 = load ptr, ptr %10, align 8, !tbaa !19
  %17 = icmp eq ptr %16, null
  br i1 %17, label %18, label %19

18:                                               ; preds = %4
  store i32 0, ptr %5, align 4
  store i32 1, ptr %11, align 4
  br label %23

19:                                               ; preds = %4
  %20 = load ptr, ptr %8, align 8, !tbaa !19
  %21 = load ptr, ptr %10, align 8, !tbaa !19
  %22 = getelementptr inbounds nuw %struct.OSSL_PARAM_BLD_DEF, ptr %21, i32 0, i32 6
  store ptr %20, ptr %22, align 8, !tbaa !27
  store i32 1, ptr %5, align 4
  store i32 1, ptr %11, align 4
  br label %23

23:                                               ; preds = %19, %18
  call void @llvm.lifetime.end.p0(i64 8, ptr %10) #8
  %24 = load i32, ptr %5, align 4
  ret i32 %24
}