; Function Attrs: nounwind uwtable
define range(i32 0, 2) i32 @OSSL_PARAM_BLD_push_octet_ptr(ptr noundef captures(none) %0, ptr noundef %1, ptr noundef %2, i64 noundef %3) local_unnamed_addr #0 {
  %5 = tail call noalias ptr @CRYPTO_zalloc(i64 noundef 56, ptr noundef nonnull @.str, i32 noundef 55) #7
  %6 = icmp eq ptr %5, null
  br i1 %6, label %param_push.exit.thread, label %7

7:                                                ; preds = %4
  store ptr %1, ptr %5, align 8, !tbaa !14
  %8 = getelementptr inbounds nuw i8, ptr %5, i64 8
  store i32 7, ptr %8, align 8, !tbaa !18
  %9 = getelementptr inbounds nuw i8, ptr %5, i64 16
  store i64 %3, ptr %9, align 8, !tbaa !19
  %10 = tail call i64 @ossl_param_bytes_to_blocks(i64 noundef 8) #7
  %11 = getelementptr inbounds nuw i8, ptr %5, i64 24
  store i64 %10, ptr %11, align 8, !tbaa !20
  %12 = getelementptr inbounds nuw i8, ptr %5, i64 12
  store i32 0, ptr %12, align 4, !tbaa !21
  %13 = load i64, ptr %0, align 8, !tbaa !22
  %14 = add i64 %13, %10
  store i64 %14, ptr %0, align 8, !tbaa !22
  %15 = getelementptr inbounds nuw i8, ptr %0, i64 16
  %16 = load ptr, ptr %15, align 8, !tbaa !3
  %17 = tail call i32 @OPENSSL_sk_push(ptr noundef %16, ptr noundef nonnull %5) #7
  %18 = icmp slt i32 %17, 1
  br i1 %18, label %19, label %param_push.exit

19:                                               ; preds = %7
  tail call void @CRYPTO_free(ptr noundef nonnull %5, ptr noundef nonnull @.str, i32 noundef 68) #7
  br label %param_push.exit.thread

param_push.exit:                                  ; preds = %7
  %20 = getelementptr inbounds nuw i8, ptr %5, i64 40
  store ptr %2, ptr %20, align 8, !tbaa !28
  br label %param_push.exit.thread

param_push.exit.thread:                           ; preds = %19, %4, %param_push.exit
  %.0 = phi i32 [ 1, %param_push.exit ], [ 0, %4 ], [ 0, %19 ]
  ret i32 %.0
}